; Function Attrs: mustprogress uwtable
define noundef range(i32 0, 4) i32 @_ZN5folly10SSLContext19getVerificationModeERKNS0_17SSLVerifyPeerEnumE(ptr noundef nonnull readonly align 4 captures(none) dereferenceable(4) %0) local_unnamed_addr #2 align 2 personality ptr @__gxx_personality_v0 {
  %2 = alloca %"class.google::LogMessageFatal", align 8
  %3 = load i32, ptr %0, align 4, !tbaa !84
  %.not = icmp eq i32 %3, 0
  br i1 %.not, label %4, label %.critedge, !prof !85

4:                                                ; preds = %1
  call void @llvm.lifetime.start.p0(i64 16, ptr nonnull %2) #29
  call void @_ZN6google15LogMessageFatalC1EPKci(ptr noundef nonnull align 8 dereferenceable(16) %2, ptr noundef nonnull @.str.3, i32 noundef 270)
  %5 = invoke noundef nonnull align 8 dereferenceable(8) ptr @_ZN6google10LogMessage6streamEv(ptr noundef nonnull align 8 dereferenceable(16) %2)
          to label %6 unwind label %8

6:                                                ; preds = %4
  %7 = invoke noundef nonnull align 8 dereferenceable(8) ptr @_ZSt16__ostream_insertIcSt11char_traitsIcEERSt13basic_ostreamIT_T0_ES6_PKS3_l(ptr noundef nonnull align 8 dereferenceable(8) %5, ptr noundef nonnull @.str.41, i64 noundef 55)
          to label %_ZStlsISt11char_traitsIcEERSt13basic_ostreamIcT_ES5_PKc.exit unwind label %8

_ZStlsISt11char_traitsIcEERSt13basic_ostreamIcT_ES5_PKc.exit: ; preds = %6
  call void @_ZN6google15LogMessageFatalD1Ev(ptr noundef nonnull align 8 dereferenceable(16) %2) #33
  unreachable

8:                                                ; preds = %6, %4
  %9 = landingpad { ptr, i32 }
          cleanup
  call void @_ZN6google15LogMessageFatalD1Ev(ptr noundef nonnull align 8 dereferenceable(16) %2) #33
  unreachable

.critedge:                                        ; preds = %1
  %switch.selectcmp = icmp eq i32 %3, 2
  %switch.select = select i1 %switch.selectcmp, i32 3, i32 0
  %switch.selectcmp10 = icmp eq i32 %3, 1
  %switch.select11 = select i1 %switch.selectcmp10, i32 1, i32 %switch.select
  ret i32 %switch.select11
}